target datalayout = "e-m:e-p270:32:32-p271:32:32-p272:64:64-i64:64-i128:128-f80:128-n8:16:32:64-S128"
target triple = "x86_64-unknown-linux-gnu"

@riscv_intr_names = internal constant [16 x ptr] [ptr @.str.251, ptr @.str.252, ptr @.str.253, ptr @.str.254, ptr @.str.255, ptr @.str.256, ptr @.str.257, ptr @.str.258, ptr @.str.259, ptr @.str.260, ptr @.str.261, ptr @.str.262, ptr @.str.263, ptr @.str.263, ptr @.str.263, ptr @.str.263], align 16
@.str.216 = private unnamed_addr constant [10 x i8] c"(unknown)\00", align 1

; Function Attrs: nounwind sspstrong uwtable
define dso_local ptr @riscv_cpu_get_trap_name(i64 noundef %cause, i1 noundef zeroext %async) #0 {
entry:
  %retval = alloca ptr, align 8
  %cause.addr = alloca i64, align 8
  %async.addr = alloca i8, align 1
  store i64 %cause, ptr %cause.addr, align 8
  %frombool = zext i1 %async to i8
  store i8 %frombool, ptr %async.addr, align 1
  %0 = load i8, ptr %async.addr, align 1
  %tobool = trunc i8 %0 to i1
  br i1 %tobool, label %if.then, label %if.else

if.then:                                          ; preds = %entry
  %1 = load i64, ptr %cause.addr, align 8
  %cmp = icmp ult i64 %1, 16
  br i1 %cmp, label %cond.true, label %cond.false

cond.true:                                        ; preds = %if.then
  %2 = load i64, ptr %cause.addr, align 8
  %arrayidx = getelementptr [16 x ptr], ptr @riscv_intr_names, i64 0, i64 %2
  %3 = load ptr, ptr %arrayidx, align 8
  br label %cond.end

cond.false:                                       ; preds = %if.then
  br label %cond.end

cond.end:                                         ; preds = %cond.false, %cond.true
  %cond = phi ptr [ %3, %cond.true ], [ @.str.216, %cond.false ]
  store ptr %cond, ptr %retval, align 8
  br label %return

if.else:                                          ; preds = %entry
  %4 = load i64, ptr %cause.addr, align 8
  %cmp1 = icmp ult i64 %4, 24
  br i1 %cmp1, label %cond.true2, label %cond.false4

cond.true2:                                       ; preds = %if.else
  %5 = load i64, ptr %cause.addr, align 8
  %arrayidx3 = getelementptr [24 x ptr], ptr @riscv_excp_names, i64 0, i64 %5
  %6 = load ptr, ptr %arrayidx3, align 8
  br label %cond.end5

cond.false4:                                      ; preds = %if.else
  br label %cond.end5

cond.end5:                                        ; preds = %cond.false4, %cond.true2
  %cond6 = phi ptr [ %6, %cond.true2 ], [ @.str.216, %cond.false4 ]
  store ptr %cond6, ptr %retval, align 8
  br label %return

return:                                           ; preds = %cond.end5, %cond.end
  %7 = load ptr, ptr %retval, align 8
  ret ptr %7
}