; Function Attrs: mustprogress nofree norecurse nosync nounwind sspstrong willreturn memory(none) uwtable
define dso_local ptr @riscv_cpu_get_trap_name(i64 noundef %cause, i1 noundef zeroext %async) local_unnamed_addr #2 {
entry:
  br i1 %async, label %if.then, label %if.else

if.then:                                          ; preds = %entry
  %cmp = icmp ult i64 %cause, 16
  br i1 %cmp, label %cond.true, label %return

cond.true:                                        ; preds = %if.then
  %arrayidx = getelementptr [16 x ptr], ptr @riscv_intr_names, i64 0, i64 %cause
  %0 = load ptr, ptr %arrayidx, align 8
  br label %return

if.else:                                          ; preds = %entry
  %cmp1 = icmp ult i64 %cause, 24
  br i1 %cmp1, label %cond.true2, label %return

cond.true2:                                       ; preds = %if.else
  %arrayidx3 = getelementptr [24 x ptr], ptr @riscv_excp_names, i64 0, i64 %cause
  %1 = load ptr, ptr %arrayidx3, align 8
  br label %return

return:                                           ; preds = %cond.true2, %if.else, %cond.true, %if.then
  %retval.0 = phi ptr [ %0, %cond.true ], [ @.str.216, %if.then ], [ %1, %cond.true2 ], [ @.str.216, %if.else ]
  ret ptr %retval.0
}